SF:/home/runner/work/dnp-encoder-rust/dnp-encoder-rust/src/decode.rs
FN:39,_RNCNvNtCsjH26w6aSZKb_16oi4_dnp_encoding6decode6decode0B5_
FN:41,_RNCNvNtCsjH26w6aSZKb_16oi4_dnp_encoding6decode6decodes_0B5_
FN:13,_RNvNtCsjH26w6aSZKb_16oi4_dnp_encoding6decode6decode
FN:13,_RNvNtCsigeK8jllpIl_16oi4_dnp_encoding6decode6decode
FN:39,_RNCNvNtCsigeK8jllpIl_16oi4_dnp_encoding6decode6decode0B5_
FN:41,_RNCNvNtCsigeK8jllpIl_16oi4_dnp_encoding6decode6decodes_0B5_
FNDA:0,_RNCNvNtCsjH26w6aSZKb_16oi4_dnp_encoding6decode6decode0B5_
FNDA:0,_RNCNvNtCsjH26w6aSZKb_16oi4_dnp_encoding6decode6decodes_0B5_
FNDA:0,_RNvNtCsjH26w6aSZKb_16oi4_dnp_encoding6decode6decode
FNDA:396,_RNvNtCsigeK8jllpIl_16oi4_dnp_encoding6decode6decode
FNDA:2,_RNCNvNtCsigeK8jllpIl_16oi4_dnp_encoding6decode6decode0B5_
FNDA:1,_RNCNvNtCsigeK8jllpIl_16oi4_dnp_encoding6decode6decodes_0B5_
FNF:3
FNH:3
DA:13,396
DA:21,396
DA:22,396
DA:23,396
DA:24,46231
DA:25,45841
DA:27,17081
DA:28,2
DA:29,17079
DA:30,17079
DA:31,17079
DA:34,17079
DA:35,1
DA:36,17078
DA:38,17078
DA:39,17078
DA:40,17076
DA:41,17076
DA:42,17075
DA:43,17075
DA:44,17075
DA:47,28760
DA:48,28760
DA:51,28760
DA:52,15844
DA:53,15844
DA:54,0
DA:55,15844
DA:56,12916
DA:58,28760
DA:59,28760
DA:62,390
DA:63,396
BRF:0
BRH:0
LF:35
LH:34
end_of_record
SF:/home/runner/work/dnp-encoder-rust/dnp-encoder-rust/src/encode.rs
FN:16,_RNvNtCsigeK8jllpIl_16oi4_dnp_encoding6encode11encoded_len
FN:4,_RNvNtCsigeK8jllpIl_16oi4_dnp_encoding6encode13is_unreservedB3_
FN:71,_RNvNtCsigeK8jllpIl_16oi4_dnp_encoding6encode6encode
FN:48,_RINvNtCsigeK8jllpIl_16oi4_dnp_encoding6encode11encode_intoNtNtCs8Ty2CzGA6U3_5alloc6string6StringEB4_
FN:48,_RINvNtCsjH26w6aSZKb_16oi4_dnp_encoding6encode11encode_intopEB4_
FN:16,_RNvNtCsjH26w6aSZKb_16oi4_dnp_encoding6encode11encoded_len
FN:4,_RNvNtCsjH26w6aSZKb_16oi4_dnp_encoding6encode13is_unreservedB3_
FN:71,_RNvNtCsjH26w6aSZKb_16oi4_dnp_encoding6encode6encode
FN:48,_RINvNtCsigeK8jllpIl_16oi4_dnp_encoding6encode11encode_intoNtCsgq5VSoHc0Zc_11test_encode13FailingWriterEBW_
FN:4,_RNvNtCsigeK8jllpIl_16oi4_dnp_encoding6encode13is_unreservedCsgq5VSoHc0Zc_11test_encode
FNDA:284,_RNvNtCsigeK8jllpIl_16oi4_dnp_encoding6encode11encoded_len
FNDA:81847,_RNvNtCsigeK8jllpIl_16oi4_dnp_encoding6encode13is_unreservedB3_
FNDA:282,_RNvNtCsigeK8jllpIl_16oi4_dnp_encoding6encode6encode
FNDA:283,_RINvNtCsigeK8jllpIl_16oi4_dnp_encoding6encode11encode_intoNtNtCs8Ty2CzGA6U3_5alloc6string6StringEB4_
FNDA:0,_RINvNtCsjH26w6aSZKb_16oi4_dnp_encoding6encode11encode_intopEB4_
FNDA:0,_RNvNtCsjH26w6aSZKb_16oi4_dnp_encoding6encode11encoded_len
FNDA:0,_RNvNtCsjH26w6aSZKb_16oi4_dnp_encoding6encode13is_unreservedB3_
FNDA:0,_RNvNtCsjH26w6aSZKb_16oi4_dnp_encoding6encode6encode
FNDA:1,_RINvNtCsigeK8jllpIl_16oi4_dnp_encoding6encode11encode_intoNtCsgq5VSoHc0Zc_11test_encode13FailingWriterEBW_
FNDA:1,_RNvNtCsigeK8jllpIl_16oi4_dnp_encoding6encode13is_unreservedCsgq5VSoHc0Zc_11test_encode
FNF:4
FNH:4
DA:4,81848
DA:5,81848
DA:6,49047
DA:7,33792
DA:8,13739
DA:11,81848
DA:16,284
DA:17,284
DA:18,284
DA:19,284
DA:20,46212
DA:21,45928
DA:22,45928
DA:24,32999
DA:25,15963
DA:26,17036
DA:27,17036
DA:28,17036
DA:29,32999
DA:33,12929
DA:34,2568
DA:35,10361
DA:36,2201
DA:38,8160
DA:40,12929
DA:41,12929
DA:44,284
DA:45,284
DA:48,284
DA:49,284
DA:50,45929
DA:51,45929
DA:52,33004
DA:53,33004
DA:54,15968
DA:56,17036
DA:57,17036
DA:58,17036
DA:59,17036
DA:60,17036
DA:63,12925
DA:64,12925
DA:67,283
DA:68,284
DA:71,282
DA:72,282
DA:73,282
DA:74,282
DA:75,282
BRF:0
BRH:0
LF:49
LH:49
end_of_record
SF:/home/runner/work/dnp-encoder-rust/dnp-encoder-rust/src/error.rs
FN:11,_RNvMNtCsjH26w6aSZKb_16oi4_dnp_encoding5errorNtB2_5Error3new
FN:14,_RNvMNtCsjH26w6aSZKb_16oi4_dnp_encoding5errorNtB2_5Error4kind
FN:17,_RNvMNtCsjH26w6aSZKb_16oi4_dnp_encoding5errorNtB2_5Error8position
FN:42,_RNvXs0_NtCsjH26w6aSZKb_16oi4_dnp_encoding5errorNtB5_5ErrorNtNtCs66KPHxksi63_4core3fmt7Display3fmt
FN:31,_RNvXs_NtCsjH26w6aSZKb_16oi4_dnp_encoding5errorNtB4_9ErrorKindNtNtCs66KPHxksi63_4core3fmt7Display3fmt
FN:11,_RNvMNtCsigeK8jllpIl_16oi4_dnp_encoding5errorNtB2_5Error3new
FN:14,_RNvMNtCsigeK8jllpIl_16oi4_dnp_encoding5errorNtB2_5Error4kind
FN:17,_RNvMNtCsigeK8jllpIl_16oi4_dnp_encoding5errorNtB2_5Error8position
FN:42,_RNvXs0_NtCsigeK8jllpIl_16oi4_dnp_encoding5errorNtB5_5ErrorNtNtCs66KPHxksi63_4core3fmt7Display3fmt
FN:31,_RNvXs_NtCsigeK8jllpIl_16oi4_dnp_encoding5errorNtB4_9ErrorKindNtNtCs66KPHxksi63_4core3fmt7Display3fmt
FNDA:0,_RNvMNtCsjH26w6aSZKb_16oi4_dnp_encoding5errorNtB2_5Error3new
FNDA:0,_RNvMNtCsjH26w6aSZKb_16oi4_dnp_encoding5errorNtB2_5Error4kind
FNDA:0,_RNvMNtCsjH26w6aSZKb_16oi4_dnp_encoding5errorNtB2_5Error8position
FNDA:0,_RNvXs0_NtCsjH26w6aSZKb_16oi4_dnp_encoding5errorNtB5_5ErrorNtNtCs66KPHxksi63_4core3fmt7Display3fmt
FNDA:0,_RNvXs_NtCsjH26w6aSZKb_16oi4_dnp_encoding5errorNtB4_9ErrorKindNtNtCs66KPHxksi63_4core3fmt7Display3fmt
FNDA:17,_RNvMNtCsigeK8jllpIl_16oi4_dnp_encoding5errorNtB2_5Error3new
FNDA:4,_RNvMNtCsigeK8jllpIl_16oi4_dnp_encoding5errorNtB2_5Error4kind
FNDA:0,_RNvMNtCsigeK8jllpIl_16oi4_dnp_encoding5errorNtB2_5Error8position
FNDA:5,_RNvXs0_NtCsigeK8jllpIl_16oi4_dnp_encoding5errorNtB5_5ErrorNtNtCs66KPHxksi63_4core3fmt7Display3fmt
FNDA:9,_RNvXs_NtCsigeK8jllpIl_16oi4_dnp_encoding5errorNtB4_9ErrorKindNtNtCs66KPHxksi63_4core3fmt7Display3fmt
FNF:5
FNH:4
DA:11,17
DA:12,17
DA:13,17
DA:14,4
DA:15,4
DA:16,4
DA:17,0
DA:18,0
DA:19,0
DA:31,9
DA:32,9
DA:33,3
DA:34,2
DA:35,2
DA:36,2
DA:38,9
DA:42,5
DA:43,5
DA:44,4
DA:46,1
DA:48,5
BRF:0
BRH:0
LF:21
LH:18
end_of_record
SF:/home/runner/work/dnp-encoder-rust/dnp-encoder-rust/src/hex.rs
FN:20,_RNvNtCsjH26w6aSZKb_16oi4_dnp_encoding3hex17has_lowercase_hexB3_
FN:15,_RNvNtCsjH26w6aSZKb_16oi4_dnp_encoding3hex6is_hexB3_
FN:5,_RNvNtCsjH26w6aSZKb_16oi4_dnp_encoding3hex7hex_valB3_
FN:41,_RNvNtNtCsjH26w6aSZKb_16oi4_dnp_encoding3hex5testss_11test_is_hex
FN:29,_RNvNtNtCsjH26w6aSZKb_16oi4_dnp_encoding3hex5testss_18test_hex_val_basic
FN:51,_RNvNtNtCsjH26w6aSZKb_16oi4_dnp_encoding3hex5testss_22test_has_lowercase_hex
FN:20,_RNvNtCsigeK8jllpIl_16oi4_dnp_encoding3hex17has_lowercase_hexB3_
FN:15,_RNvNtCsigeK8jllpIl_16oi4_dnp_encoding3hex6is_hexB3_
FN:5,_RNvNtCsigeK8jllpIl_16oi4_dnp_encoding3hex7hex_valB3_
FNDA:5,_RNvNtCsjH26w6aSZKb_16oi4_dnp_encoding3hex17has_lowercase_hexB3_
FNDA:27,_RNvNtCsjH26w6aSZKb_16oi4_dnp_encoding3hex6is_hexB3_
FNDA:8,_RNvNtCsjH26w6aSZKb_16oi4_dnp_encoding3hex7hex_valB3_
FNDA:1,_RNvNtNtCsjH26w6aSZKb_16oi4_dnp_encoding3hex5testss_11test_is_hex
FNDA:1,_RNvNtNtCsjH26w6aSZKb_16oi4_dnp_encoding3hex5testss_18test_hex_val_basic
FNDA:1,_RNvNtNtCsjH26w6aSZKb_16oi4_dnp_encoding3hex5testss_22test_has_lowercase_hex
FNDA:17085,_RNvNtCsigeK8jllpIl_16oi4_dnp_encoding3hex17has_lowercase_hexB3_
FNDA:4,_RNvNtCsigeK8jllpIl_16oi4_dnp_encoding3hex6is_hexB3_
FNDA:34154,_RNvNtCsigeK8jllpIl_16oi4_dnp_encoding3hex7hex_valB3_
FNF:6
FNH:6
DA:5,34162
DA:6,34162
DA:7,34161
DA:8,3
DA:9,8545
DA:10,5
DA:12,34162
DA:15,31
DA:16,31
DA:17,31
DA:20,17090
DA:21,17090
DA:22,17090
DA:29,1
DA:30,1
DA:31,1
DA:32,1
DA:33,1
DA:34,1
DA:35,1
DA:36,1
DA:37,1
DA:38,1
DA:41,1
DA:42,23
DA:43,22
DA:45,6
DA:46,5
DA:48,1
DA:51,1
DA:52,1
DA:53,1
DA:54,1
DA:55,1
DA:56,1
DA:57,1
BRF:0
BRH:0
LF:36
LH:36
end_of_record
SF:/home/runner/work/dnp-encoder-rust/dnp-encoder-rust/src/main.rs
FN:5,_RNvCsdemk4bm7qqx_20oi4_dnp_encoding_cli14read_all_stdin
FN:23,_RNvCsdemk4bm7qqx_20oi4_dnp_encoding_cli4main
FN:17,_RNvCsdemk4bm7qqx_20oi4_dnp_encoding_cli5usage
FN:5,_RNvCsbzyAdvDojpm_20oi4_dnp_encoding_cli14read_all_stdin
FN:23,_RNvCsbzyAdvDojpm_20oi4_dnp_encoding_cli4main
FN:17,_RNvCsbzyAdvDojpm_20oi4_dnp_encoding_cli5usage
FNDA:0,_RNvCsdemk4bm7qqx_20oi4_dnp_encoding_cli14read_all_stdin
FNDA:0,_RNvCsdemk4bm7qqx_20oi4_dnp_encoding_cli4main
FNDA:0,_RNvCsdemk4bm7qqx_20oi4_dnp_encoding_cli5usage
FNDA:2,_RNvCsbzyAdvDojpm_20oi4_dnp_encoding_cli14read_all_stdin
FNDA:6,_RNvCsbzyAdvDojpm_20oi4_dnp_encoding_cli4main
FNDA:2,_RNvCsbzyAdvDojpm_20oi4_dnp_encoding_cli5usage
FNF:3
FNH:3
DA:5,2
DA:6,2
DA:7,2
DA:8,2
DA:9,1
DA:10,1
DA:11,0
DA:12,1
DA:13,1
DA:14,2
DA:15,2
DA:17,2
DA:18,2
DA:19,2
DA:21,2
DA:23,6
DA:24,6
DA:25,6
DA:26,5
DA:28,1
DA:29,1
DA:32,5
DA:33,3
DA:34,2
DA:35,2
DA:36,0
DA:37,0
DA:38,0
DA:42,5
DA:43,5
DA:46,2
DA:47,2
DA:48,2
DA:56,3
DA:59,2
DA:60,1
DA:61,1
DA:62,1
DA:64,1
DA:65,1
DA:66,1
DA:77,1
DA:78,1
DA:81,6
BRF:0
BRH:0
LF:44
LH:40
end_of_record
SF:/home/runner/work/dnp-encoder-rust/dnp-encoder-rust/src/validate.rs
FN:15,_RNvMNtCsjH26w6aSZKb_16oi4_dnp_encoding8validateNtB2_5Rules11strict_like
FN:25,_RNvNtCsjH26w6aSZKb_16oi4_dnp_encoding8validate12validate_dnp
FN:15,_RNvMNtCsigeK8jllpIl_16oi4_dnp_encoding8validateNtB2_5Rules11strict_like
FN:25,_RNvNtCsigeK8jllpIl_16oi4_dnp_encoding8validate12validate_dnp
FNDA:0,_RNvMNtCsjH26w6aSZKb_16oi4_dnp_encoding8validateNtB2_5Rules11strict_like
FNDA:0,_RNvNtCsjH26w6aSZKb_16oi4_dnp_encoding8validate12validate_dnp
FNDA:0,_RNvMNtCsigeK8jllpIl_16oi4_dnp_encoding8validateNtB2_5Rules11strict_like
FNDA:10,_RNvNtCsigeK8jllpIl_16oi4_dnp_encoding8validate12validate_dnp
FNF:2
FNH:1
DA:15,0
DA:16,0
DA:17,0
DA:18,0
DA:19,0
DA:20,0
DA:25,10
DA:26,10
DA:27,10
DA:28,25
DA:29,22
DA:30,22
DA:32,7
DA:33,3
DA:34,4
DA:35,4
DA:36,4
DA:40,4
DA:41,2
DA:42,2
DA:45,2
DA:46,0
DA:47,2
DA:49,2
DA:50,0
DA:51,0
DA:52,0
DA:53,0
DA:54,2
DA:55,2
DA:56,1
DA:57,1
DA:58,1
DA:59,1
DA:60,1
DA:61,1
DA:62,1
DA:63,15
DA:64,15
DA:66,11
DA:67,1
DA:68,1
DA:69,1
DA:70,1
DA:71,10
DA:72,10
DA:73,4
DA:74,4
DA:75,4
DA:76,4
DA:77,4
DA:78,4
DA:79,4
DA:81,3
DA:82,10
BRF:0
BRH:0
LF:55
LH:44
end_of_record
SF:/home/runner/work/dnp-encoder-rust/dnp-encoder-rust/tools/gen_golden.rs
FN:7,_RNvCsjzCtbUyJSef_10gen_golden4main
FN:7,_RNvCsh2SseJwgr5c_10gen_golden4main
FNDA:0,_RNvCsjzCtbUyJSef_10gen_golden4main
FNDA:0,_RNvCsh2SseJwgr5c_10gen_golden4main
FNF:1
FNH:0
DA:7,0
DA:16,0
DA:17,0
DA:18,0
DA:19,0
DA:20,0
DA:22,0
BRF:0
BRH:0
LF:7
LH:0
end_of_record